target datalayout = "e-m:e-p270:32:32-p271:32:32-p272:64:64-i64:64-i128:128-f80:128-n8:16:32:64-S128"
target triple = "x86_64-pc-linux-gnu"

@ws_optind = global i32 1, align 4
@ws_opterr = global i32 1, align 4
@ws_optreset = global i32 0, align 4
@ws_optpos = global i32 0, align 4
@ws_optarg = global ptr null, align 8
@ws_optopt = global i32 0, align 4
@.str = private unnamed_addr constant [24 x i8] c": unrecognized option: \00", align 1
@.str.1 = private unnamed_addr constant [32 x i8] c": option requires an argument: \00", align 1

; Function Attrs: null_pointer_is_valid sspstrong uwtable
define i32 @ws_getopt(i32 noundef %0, ptr noundef %1, ptr noundef %2) #0 {
  %4 = alloca i32, align 4
  %5 = alloca i32, align 4
  %6 = alloca ptr, align 8
  %7 = alloca ptr, align 8
  %8 = alloca i32, align 4
  %9 = alloca i32, align 4
  %10 = alloca i32, align 4
  %11 = alloca i32, align 4
  %12 = alloca i32, align 4
  %13 = alloca ptr, align 8
  %14 = alloca i32, align 4
  store i32 %0, ptr %5, align 4
  store ptr %1, ptr %6, align 8
  store ptr %2, ptr %7, align 8
  call void @llvm.lifetime.start.p0(i64 4, ptr %8) #6
  call void @llvm.lifetime.start.p0(i64 4, ptr %9) #6
  call void @llvm.lifetime.start.p0(i64 4, ptr %10) #6
  call void @llvm.lifetime.start.p0(i64 4, ptr %11) #6
  call void @llvm.lifetime.start.p0(i64 4, ptr %12) #6
  call void @llvm.lifetime.start.p0(i64 8, ptr %13) #6
  %15 = load i32, ptr @ws_optind, align 4
  %16 = icmp ne i32 %15, 0
  br i1 %16, label %17, label %20

17:                                               ; preds = %3
  %18 = load i32, ptr @ws_optreset, align 4
  %19 = icmp ne i32 %18, 0
  br i1 %19, label %20, label %21

20:                                               ; preds = %17, %3
  store i32 0, ptr @ws_optreset, align 4
  store i32 0, ptr @ws_optpos, align 4
  store i32 1, ptr @ws_optind, align 4
  br label %21

21:                                               ; preds = %20, %17
  %22 = load i32, ptr @ws_optind, align 4
  %23 = load i32, ptr %5, align 4
  %24 = icmp sge i32 %22, %23
  br i1 %24, label %32, label %25

25:                                               ; preds = %21
  %26 = load ptr, ptr %6, align 8
  %27 = load i32, ptr @ws_optind, align 4
  %28 = sext i32 %27 to i64
  %29 = getelementptr ptr, ptr %26, i64 %28
  %30 = load ptr, ptr %29, align 8
  %31 = icmp ne ptr %30, null
  br i1 %31, label %33, label %32

32:                                               ; preds = %25, %21
  store i32 -1, ptr %4, align 4
  store i32 1, ptr %14, align 4
  br label %250

33:                                               ; preds = %25
  %34 = load ptr, ptr %6, align 8
  %35 = load i32, ptr @ws_optind, align 4
  %36 = sext i32 %35 to i64
  %37 = getelementptr ptr, ptr %34, i64 %36
  %38 = load ptr, ptr %37, align 8
  %39 = getelementptr i8, ptr %38, i64 0
  %40 = load i8, ptr %39, align 1
  %41 = sext i8 %40 to i32
  %42 = icmp ne i32 %41, 45
  br i1 %42, label %43, label %57

43:                                               ; preds = %33
  %44 = load ptr, ptr %7, align 8
  %45 = getelementptr i8, ptr %44, i64 0
  %46 = load i8, ptr %45, align 1
  %47 = sext i8 %46 to i32
  %48 = icmp eq i32 %47, 45
  br i1 %48, label %49, label %56

49:                                               ; preds = %43
  %50 = load ptr, ptr %6, align 8
  %51 = load i32, ptr @ws_optind, align 4
  %52 = add i32 %51, 1
  store i32 %52, ptr @ws_optind, align 4
  %53 = sext i32 %51 to i64
  %54 = getelementptr ptr, ptr %50, i64 %53
  %55 = load ptr, ptr %54, align 8
  store ptr %55, ptr @ws_optarg, align 8
  store i32 1, ptr %4, align 4
  store i32 1, ptr %14, align 4
  br label %250

56:                                               ; preds = %43
  store i32 -1, ptr %4, align 4
  store i32 1, ptr %14, align 4
  br label %250

57:                                               ; preds = %33
  %58 = load ptr, ptr %6, align 8
  %59 = load i32, ptr @ws_optind, align 4
  %60 = sext i32 %59 to i64
  %61 = getelementptr ptr, ptr %58, i64 %60
  %62 = load ptr, ptr %61, align 8
  %63 = getelementptr i8, ptr %62, i64 1
  %64 = load i8, ptr %63, align 1
  %65 = icmp ne i8 %64, 0
  br i1 %65, label %67, label %66

66:                                               ; preds = %57
  store i32 -1, ptr %4, align 4
  store i32 1, ptr %14, align 4
  br label %250

67:                                               ; preds = %57
  %68 = load ptr, ptr %6, align 8
  %69 = load i32, ptr @ws_optind, align 4
  %70 = sext i32 %69 to i64
  %71 = getelementptr ptr, ptr %68, i64 %70
  %72 = load ptr, ptr %71, align 8
  %73 = getelementptr i8, ptr %72, i64 1
  %74 = load i8, ptr %73, align 1
  %75 = sext i8 %74 to i32
  %76 = icmp eq i32 %75, 45
  br i1 %76, label %77, label %89

77:                                               ; preds = %67
  %78 = load ptr, ptr %6, align 8
  %79 = load i32, ptr @ws_optind, align 4
  %80 = sext i32 %79 to i64
  %81 = getelementptr ptr, ptr %78, i64 %80
  %82 = load ptr, ptr %81, align 8
  %83 = getelementptr i8, ptr %82, i64 2
  %84 = load i8, ptr %83, align 1
  %85 = icmp ne i8 %84, 0
  br i1 %85, label %89, label %86

86:                                               ; preds = %77
  %87 = load i32, ptr @ws_optind, align 4
  %88 = add i32 %87, 1
  store i32 %88, ptr @ws_optind, align 4
  store i32 -1, ptr %4, align 4
  store i32 1, ptr %14, align 4
  br label %250

89:                                               ; preds = %77, %67
  %90 = load i32, ptr @ws_optpos, align 4
  %91 = icmp ne i32 %90, 0
  br i1 %91, label %95, label %92

92:                                               ; preds = %89
  %93 = load i32, ptr @ws_optpos, align 4
  %94 = add i32 %93, 1
  store i32 %94, ptr @ws_optpos, align 4
  br label %95

95:                                               ; preds = %92, %89
  %96 = load ptr, ptr %6, align 8
  %97 = load i32, ptr @ws_optind, align 4
  %98 = sext i32 %97 to i64
  %99 = getelementptr ptr, ptr %96, i64 %98
  %100 = load ptr, ptr %99, align 8
  %101 = load i32, ptr @ws_optpos, align 4
  %102 = sext i32 %101 to i64
  %103 = getelementptr i8, ptr %100, i64 %102
  %104 = call i32 @mbtowc(ptr noundef %9, ptr noundef %103, i64 noundef 16) #6
  store i32 %104, ptr %11, align 4
  %105 = icmp slt i32 %104, 0
  br i1 %105, label %106, label %107

106:                                              ; preds = %95
  store i32 1, ptr %11, align 4
  store i32 65533, ptr %9, align 4
  br label %107

107:                                              ; preds = %106, %95
  %108 = load ptr, ptr %6, align 8
  %109 = load i32, ptr @ws_optind, align 4
  %110 = sext i32 %109 to i64
  %111 = getelementptr ptr, ptr %108, i64 %110
  %112 = load ptr, ptr %111, align 8
  %113 = load i32, ptr @ws_optpos, align 4
  %114 = sext i32 %113 to i64
  %115 = getelementptr i8, ptr %112, i64 %114
  store ptr %115, ptr %13, align 8
  %116 = load i32, ptr %11, align 4
  %117 = load i32, ptr @ws_optpos, align 4
  %118 = add i32 %117, %116
  store i32 %118, ptr @ws_optpos, align 4
  %119 = load ptr, ptr %6, align 8
  %120 = load i32, ptr @ws_optind, align 4
  %121 = sext i32 %120 to i64
  %122 = getelementptr ptr, ptr %119, i64 %121
  %123 = load ptr, ptr %122, align 8
  %124 = load i32, ptr @ws_optpos, align 4
  %125 = sext i32 %124 to i64
  %126 = getelementptr i8, ptr %123, i64 %125
  %127 = load i8, ptr %126, align 1
  %128 = icmp ne i8 %127, 0
  br i1 %128, label %132, label %129

129:                                              ; preds = %107
  %130 = load i32, ptr @ws_optind, align 4
  %131 = add i32 %130, 1
  store i32 %131, ptr @ws_optind, align 4
  store i32 0, ptr @ws_optpos, align 4
  br label %132

132:                                              ; preds = %129, %107
  %133 = load ptr, ptr %7, align 8
  %134 = getelementptr i8, ptr %133, i64 0
  %135 = load i8, ptr %134, align 1
  %136 = sext i8 %135 to i32
  %137 = icmp eq i32 %136, 45
  br i1 %137, label %144, label %138

138:                                              ; preds = %132
  %139 = load ptr, ptr %7, align 8
  %140 = getelementptr i8, ptr %139, i64 0
  %141 = load i8, ptr %140, align 1
  %142 = sext i8 %141 to i32
  %143 = icmp eq i32 %142, 43
  br i1 %143, label %144, label %147

144:                                              ; preds = %138, %132
  %145 = load ptr, ptr %7, align 8
  %146 = getelementptr i8, ptr %145, i32 1
  store ptr %146, ptr %7, align 8
  br label %147

147:                                              ; preds = %144, %138
  store i32 0, ptr %8, align 4
  store i32 0, ptr %10, align 4
  br label %148

148:                                              ; preds = %171, %147
  %149 = load ptr, ptr %7, align 8
  %150 = load i32, ptr %8, align 4
  %151 = sext i32 %150 to i64
  %152 = getelementptr i8, ptr %149, i64 %151
  %153 = call i32 @mbtowc(ptr noundef %10, ptr noundef %152, i64 noundef 16) #6
  store i32 %153, ptr %12, align 4
  %154 = load i32, ptr %12, align 4
  %155 = icmp sgt i32 %154, 0
  br i1 %155, label %156, label %160

156:                                              ; preds = %148
  %157 = load i32, ptr %12, align 4
  %158 = load i32, ptr %8, align 4
  %159 = add i32 %158, %157
  store i32 %159, ptr %8, align 4
  br label %163

160:                                              ; preds = %148
  %161 = load i32, ptr %8, align 4
  %162 = add i32 %161, 1
  store i32 %162, ptr %8, align 4
  br label %163

163:                                              ; preds = %160, %156
  br label %164

164:                                              ; preds = %163
  %165 = load i32, ptr %12, align 4
  %166 = icmp ne i32 %165, 0
  br i1 %166, label %167, label %171

167:                                              ; preds = %164
  %168 = load i32, ptr %10, align 4
  %169 = load i32, ptr %9, align 4
  %170 = icmp ne i32 %168, %169
  br label %171

171:                                              ; preds = %167, %164
  %172 = phi i1 [ false, %164 ], [ %170, %167 ]
  br i1 %172, label %148, label %173, !llvm.loop !6

173:                                              ; preds = %171
  %174 = load i32, ptr %10, align 4
  %175 = load i32, ptr %9, align 4
  %176 = icmp ne i32 %174, %175
  br i1 %176, label %180, label %177

177:                                              ; preds = %173
  %178 = load i32, ptr %9, align 4
  %179 = icmp eq i32 %178, 58
  br i1 %179, label %180, label %196

180:                                              ; preds = %177, %173
  %181 = load i32, ptr %9, align 4
  store i32 %181, ptr @ws_optopt, align 4
  %182 = load ptr, ptr %7, align 8
  %183 = getelementptr i8, ptr %182, i64 0
  %184 = load i8, ptr %183, align 1
  %185 = sext i8 %184 to i32
  %186 = icmp ne i32 %185, 58
  br i1 %186, label %187, label %195

187:                                              ; preds = %180
  %188 = load i32, ptr @ws_opterr, align 4
  %189 = icmp ne i32 %188, 0
  br i1 %189, label %190, label %195

190:                                              ; preds = %187
  %191 = call ptr @g_get_prgname()
  %192 = load ptr, ptr %13, align 8
  %193 = load i32, ptr %11, align 4
  %194 = sext i32 %193 to i64
  call void @__getopt_msg(ptr noundef %191, ptr noundef @.str, ptr noundef %192, i64 noundef %194)
  br label %195

195:                                              ; preds = %190, %187, %180
  store i32 63, ptr %4, align 4
  store i32 1, ptr %14, align 4
  br label %250

196:                                              ; preds = %177
  %197 = load ptr, ptr %7, align 8
  %198 = load i32, ptr %8, align 4
  %199 = sext i32 %198 to i64
  %200 = getelementptr i8, ptr %197, i64 %199
  %201 = load i8, ptr %200, align 1
  %202 = sext i8 %201 to i32
  %203 = icmp eq i32 %202, 58
  br i1 %203, label %204, label %248

204:                                              ; preds = %196
  store ptr null, ptr @ws_optarg, align 8
  %205 = load ptr, ptr %7, align 8
  %206 = load i32, ptr %8, align 4
  %207 = add i32 %206, 1
  %208 = sext i32 %207 to i64
  %209 = getelementptr i8, ptr %205, i64 %208
  %210 = load i8, ptr %209, align 1
  %211 = sext i8 %210 to i32
  %212 = icmp ne i32 %211, 58
  br i1 %212, label %216, label %213

213:                                              ; preds = %204
  %214 = load i32, ptr @ws_optpos, align 4
  %215 = icmp ne i32 %214, 0
  br i1 %215, label %216, label %226

216:                                              ; preds = %213, %204
  %217 = load ptr, ptr %6, align 8
  %218 = load i32, ptr @ws_optind, align 4
  %219 = add i32 %218, 1
  store i32 %219, ptr @ws_optind, align 4
  %220 = sext i32 %218 to i64
  %221 = getelementptr ptr, ptr %217, i64 %220
  %222 = load ptr, ptr %221, align 8
  %223 = load i32, ptr @ws_optpos, align 4
  %224 = sext i32 %223 to i64
  %225 = getelementptr i8, ptr %222, i64 %224
  store ptr %225, ptr @ws_optarg, align 8
  store i32 0, ptr @ws_optpos, align 4
  br label %226

226:                                              ; preds = %216, %213
  %227 = load i32, ptr @ws_optind, align 4
  %228 = load i32, ptr %5, align 4
  %229 = icmp sgt i32 %227, %228
  br i1 %229, label %230, label %247

230:                                              ; preds = %226
  %231 = load i32, ptr %9, align 4
  store i32 %231, ptr @ws_optopt, align 4
  %232 = load ptr, ptr %7, align 8
  %233 = getelementptr i8, ptr %232, i64 0
  %234 = load i8, ptr %233, align 1
  %235 = sext i8 %234 to i32
  %236 = icmp eq i32 %235, 58
  br i1 %236, label %237, label %238

237:                                              ; preds = %230
  store i32 58, ptr %4, align 4
  store i32 1, ptr %14, align 4
  br label %250

238:                                              ; preds = %230
  %239 = load i32, ptr @ws_opterr, align 4
  %240 = icmp ne i32 %239, 0
  br i1 %240, label %241, label %246

241:                                              ; preds = %238
  %242 = call ptr @g_get_prgname()
  %243 = load ptr, ptr %13, align 8
  %244 = load i32, ptr %11, align 4
  %245 = sext i32 %244 to i64
  call void @__getopt_msg(ptr noundef %242, ptr noundef @.str.1, ptr noundef %243, i64 noundef %245)
  br label %246

246:                                              ; preds = %241, %238
  store i32 63, ptr %4, align 4
  store i32 1, ptr %14, align 4
  br label %250

247:                                              ; preds = %226
  br label %248

248:                                              ; preds = %247, %196
  %249 = load i32, ptr %9, align 4
  store i32 %249, ptr %4, align 4
  store i32 1, ptr %14, align 4
  br label %250

250:                                              ; preds = %248, %246, %237, %195, %86, %66, %56, %49, %32
  call void @llvm.lifetime.end.p0(i64 8, ptr %13) #6
  call void @llvm.lifetime.end.p0(i64 4, ptr %12) #6
  call void @llvm.lifetime.end.p0(i64 4, ptr %11) #6
  call void @llvm.lifetime.end.p0(i64 4, ptr %10) #6
  call void @llvm.lifetime.end.p0(i64 4, ptr %9) #6
  call void @llvm.lifetime.end.p0(i64 4, ptr %8) #6
  %251 = load i32, ptr %4, align 4
  ret i32 %251
}