; Function Attrs: null_pointer_is_valid sspstrong uwtable
define i32 @ws_getopt(i32 noundef %0, ptr noundef readonly captures(none) %1, ptr noundef %2) local_unnamed_addr #0 {
  %4 = alloca i32, align 4
  %5 = alloca i32, align 4
  call void @llvm.lifetime.start.p0(i64 4, ptr nonnull %4) #8
  call void @llvm.lifetime.start.p0(i64 4, ptr nonnull %5) #8
  %6 = load i32, ptr @ws_optind, align 4
  %7 = icmp eq i32 %6, 0
  %8 = load i32, ptr @ws_optreset, align 4
  %9 = icmp ne i32 %8, 0
  %or.cond = select i1 %7, i1 true, i1 %9
  br i1 %or.cond, label %10, label %11

10:                                               ; preds = %3
  store i32 0, ptr @ws_optreset, align 4
  store i32 0, ptr @ws_optpos, align 4
  store i32 1, ptr @ws_optind, align 4
  br label %11

11:                                               ; preds = %3, %10
  %12 = phi i32 [ %6, %3 ], [ 1, %10 ]
  %.not = icmp slt i32 %12, %0
  br i1 %.not, label %13, label %111

13:                                               ; preds = %11
  %14 = sext i32 %12 to i64
  %15 = getelementptr ptr, ptr %1, i64 %14
  %16 = load ptr, ptr %15, align 8
  %.not52 = icmp eq ptr %16, null
  br i1 %.not52, label %111, label %17

17:                                               ; preds = %13
  %18 = load i8, ptr %16, align 1
  %.not53 = icmp eq i8 %18, 45
  br i1 %.not53, label %24, label %19

19:                                               ; preds = %17
  %20 = load i8, ptr %2, align 1
  %21 = icmp eq i8 %20, 45
  br i1 %21, label %22, label %111

22:                                               ; preds = %19
  %23 = add nsw i32 %12, 1
  store i32 %23, ptr @ws_optind, align 4
  store ptr %16, ptr @ws_optarg, align 8
  br label %111

24:                                               ; preds = %17
  %25 = getelementptr i8, ptr %16, i64 1
  %26 = load i8, ptr %25, align 1
  switch i8 %26, label %32 [
    i8 0, label %111
    i8 45, label %27
  ]

27:                                               ; preds = %24
  %28 = getelementptr i8, ptr %16, i64 2
  %29 = load i8, ptr %28, align 1
  %.not55 = icmp eq i8 %29, 0
  br i1 %.not55, label %30, label %32

30:                                               ; preds = %27
  %31 = add nsw i32 %12, 1
  store i32 %31, ptr @ws_optind, align 4
  br label %111

32:                                               ; preds = %24, %27
  %33 = load i32, ptr @ws_optpos, align 4
  %.not56 = icmp eq i32 %33, 0
  br i1 %.not56, label %34, label %35

34:                                               ; preds = %32
  store i32 1, ptr @ws_optpos, align 4
  br label %35

35:                                               ; preds = %34, %32
  %36 = phi i32 [ 1, %34 ], [ %33, %32 ]
  %37 = sext i32 %36 to i64
  %38 = getelementptr i8, ptr %16, i64 %37
  %39 = call i32 @mbtowc(ptr noundef nonnull %4, ptr noundef %38, i64 noundef 16) #8
  %40 = icmp slt i32 %39, 0
  br i1 %40, label %41, label %42

41:                                               ; preds = %35
  store i32 65533, ptr %4, align 4
  br label %42

42:                                               ; preds = %41, %35
  %.042 = phi i32 [ 1, %41 ], [ %39, %35 ]
  %43 = load i32, ptr @ws_optind, align 4
  %44 = sext i32 %43 to i64
  %45 = getelementptr ptr, ptr %1, i64 %44
  %46 = load ptr, ptr %45, align 8
  %47 = load i32, ptr @ws_optpos, align 4
  %48 = sext i32 %47 to i64
  %49 = getelementptr i8, ptr %46, i64 %48
  %50 = add i32 %47, %.042
  store i32 %50, ptr @ws_optpos, align 4
  %51 = sext i32 %50 to i64
  %52 = getelementptr i8, ptr %46, i64 %51
  %53 = load i8, ptr %52, align 1
  %.not57 = icmp eq i8 %53, 0
  br i1 %.not57, label %54, label %56

54:                                               ; preds = %42
  %55 = add i32 %43, 1
  store i32 %55, ptr @ws_optind, align 4
  store i32 0, ptr @ws_optpos, align 4
  br label %56

56:                                               ; preds = %54, %42
  %57 = load i8, ptr %2, align 1
  switch i8 %57, label %60 [
    i8 45, label %58
    i8 43, label %58
  ]

58:                                               ; preds = %56, %56
  %59 = getelementptr i8, ptr %2, i64 1
  br label %60

60:                                               ; preds = %56, %58
  %.041 = phi ptr [ %59, %58 ], [ %2, %56 ]
  store i32 0, ptr %5, align 4
  br label %61

61:                                               ; preds = %61, %60
  %.043 = phi i32 [ 0, %60 ], [ %.1, %61 ]
  %62 = sext i32 %.043 to i64
  %63 = getelementptr i8, ptr %.041, i64 %62
  %64 = call i32 @mbtowc(ptr noundef nonnull %5, ptr noundef %63, i64 noundef 16) #8
  %. = call i32 @llvm.smax.i32(i32 %64, i32 1)
  %.1 = add i32 %., %.043
  %65 = icmp ne i32 %64, 0
  %66 = load i32, ptr %5, align 4
  %67 = load i32, ptr %4, align 4
  %68 = icmp ne i32 %66, %67
  %69 = select i1 %65, i1 %68, i1 false
  br i1 %69, label %61, label %70, !llvm.loop !6

70:                                               ; preds = %61
  %71 = icmp eq i32 %67, 58
  %or.cond3 = or i1 %68, %71
  br i1 %or.cond3, label %72, label %80

72:                                               ; preds = %70
  store i32 %67, ptr @ws_optopt, align 4
  %73 = load i8, ptr %.041, align 1
  %74 = icmp ne i8 %73, 58
  %75 = load i32, ptr @ws_opterr, align 4
  %76 = icmp ne i32 %75, 0
  %or.cond5 = select i1 %74, i1 %76, i1 false
  br i1 %or.cond5, label %77, label %111

77:                                               ; preds = %72
  %78 = call ptr @g_get_prgname()
  %79 = zext nneg i32 %.042 to i64
  call fastcc void @__getopt_msg(ptr noundef %78, ptr noundef nonnull @.str, ptr noundef %49, i64 noundef %79)
  br label %111

80:                                               ; preds = %70
  %81 = sext i32 %.1 to i64
  %82 = getelementptr i8, ptr %.041, i64 %81
  %83 = load i8, ptr %82, align 1
  %84 = icmp eq i8 %83, 58
  br i1 %84, label %85, label %111

85:                                               ; preds = %80
  store ptr null, ptr @ws_optarg, align 8
  %86 = add i32 %.1, 1
  %87 = sext i32 %86 to i64
  %88 = getelementptr i8, ptr %.041, i64 %87
  %89 = load i8, ptr %88, align 1
  %90 = icmp ne i8 %89, 58
  %91 = load i32, ptr @ws_optpos, align 4
  %92 = icmp ne i32 %91, 0
  %or.cond7 = select i1 %90, i1 true, i1 %92
  %.pre = load i32, ptr @ws_optind, align 4
  br i1 %or.cond7, label %93, label %100

93:                                               ; preds = %85
  %94 = add i32 %.pre, 1
  store i32 %94, ptr @ws_optind, align 4
  %95 = sext i32 %.pre to i64
  %96 = getelementptr ptr, ptr %1, i64 %95
  %97 = load ptr, ptr %96, align 8
  %98 = sext i32 %91 to i64
  %99 = getelementptr i8, ptr %97, i64 %98
  store ptr %99, ptr @ws_optarg, align 8
  store i32 0, ptr @ws_optpos, align 4
  br label %100

100:                                              ; preds = %85, %93
  %101 = phi i32 [ %.pre, %85 ], [ %94, %93 ]
  %102 = icmp sgt i32 %101, %0
  br i1 %102, label %103, label %111

103:                                              ; preds = %100
  store i32 %66, ptr @ws_optopt, align 4
  %104 = load i8, ptr %.041, align 1
  %105 = icmp eq i8 %104, 58
  br i1 %105, label %111, label %106

106:                                              ; preds = %103
  %107 = load i32, ptr @ws_opterr, align 4
  %.not58 = icmp eq i32 %107, 0
  br i1 %.not58, label %111, label %108

108:                                              ; preds = %106
  %109 = call ptr @g_get_prgname()
  %110 = zext nneg i32 %.042 to i64
  call fastcc void @__getopt_msg(ptr noundef %109, ptr noundef nonnull @.str.1, ptr noundef %49, i64 noundef %110)
  br label %111

111:                                              ; preds = %80, %100, %106, %108, %103, %72, %77, %24, %19, %11, %13, %30, %22
  %.0 = phi i32 [ 1, %22 ], [ -1, %30 ], [ -1, %13 ], [ -1, %11 ], [ -1, %19 ], [ -1, %24 ], [ 63, %77 ], [ 63, %72 ], [ 58, %103 ], [ 63, %108 ], [ 63, %106 ], [ %66, %100 ], [ %66, %80 ]
  call void @llvm.lifetime.end.p0(i64 4, ptr nonnull %5) #8
  call void @llvm.lifetime.end.p0(i64 4, ptr nonnull %4) #8
  ret i32 %.0
}